target datalayout = "e-m:e-p270:32:32-p271:32:32-p272:64:64-i64:64-i128:128-f80:128-n8:16:32:64-S128"
target triple = "x86_64-pc-linux-gnu"

%"struct.cv::softfloat" = type { i32 }

; Function Attrs: mustprogress nounwind uwtable
define internal void @_ZN2cvL10raiseFlagsEh(i8 noundef zeroext %0) #1 {
  %2 = alloca i8, align 1
  store i8 %0, ptr %2, align 1
  ret void
}

; Function Attrs: mustprogress nounwind uwtable
define internal noundef i64 @_ZN2cvL19f32_to_i32_r_minMagENS_9softfloatEb(ptr noundef %0, i1 noundef zeroext %1) #1 {
  %3 = alloca i64, align 8
  %4 = alloca ptr, align 8
  %5 = alloca i8, align 1
  %6 = alloca i64, align 8
  %7 = alloca i64, align 8
  %8 = alloca i64, align 8
  %9 = alloca i64, align 8
  %10 = alloca i8, align 1
  %11 = alloca i64, align 8
  store ptr %0, ptr %4, align 8
  %12 = zext i1 %1 to i8
  store i8 %12, ptr %5, align 1
  %13 = getelementptr inbounds %"struct.cv::softfloat", ptr %0, i32 0, i32 0
  %14 = load i32, ptr %13, align 4
  %15 = zext i32 %14 to i64
  store i64 %15, ptr %6, align 8
  %16 = load i64, ptr %6, align 8
  %17 = lshr i64 %16, 23
  %18 = and i64 %17, 255
  store i64 %18, ptr %7, align 8
  %19 = load i64, ptr %6, align 8
  %20 = and i64 %19, 8388607
  store i64 %20, ptr %8, align 8
  %21 = load i64, ptr %7, align 8
  %22 = sub nsw i64 158, %21
  store i64 %22, ptr %9, align 8
  %23 = load i64, ptr %9, align 8
  %24 = icmp sle i64 32, %23
  br i1 %24, label %25, label %35

25:                                               ; preds = %2
  %26 = load i8, ptr %5, align 1
  %27 = trunc i8 %26 to i1
  br i1 %27, label %28, label %34

28:                                               ; preds = %25
  %29 = load i64, ptr %7, align 8
  %30 = load i64, ptr %8, align 8
  %31 = or i64 %29, %30
  %32 = icmp ne i64 %31, 0
  br i1 %32, label %33, label %34

33:                                               ; preds = %28
  call void @_ZN2cvL10raiseFlagsEh(i8 noundef zeroext 1)
  br label %34

34:                                               ; preds = %33, %28, %25
  store i64 0, ptr %3, align 8
  br label %87

35:                                               ; preds = %2
  %36 = load i64, ptr %6, align 8
  %37 = trunc i64 %36 to i32
  %38 = lshr i32 %37, 31
  %39 = icmp ne i32 %38, 0
  %40 = zext i1 %39 to i8
  store i8 %40, ptr %10, align 1
  %41 = load i64, ptr %9, align 8
  %42 = icmp sle i64 %41, 0
  br i1 %42, label %43, label %61

43:                                               ; preds = %35
  %44 = load i64, ptr %6, align 8
  %45 = icmp eq i64 %44, 3472883712
  br i1 %45, label %46, label %47

46:                                               ; preds = %43
  store i64 -2147483648, ptr %3, align 8
  br label %87

47:                                               ; preds = %43
  call void @_ZN2cvL10raiseFlagsEh(i8 noundef zeroext 16)
  %48 = load i64, ptr %7, align 8
  %49 = icmp eq i64 %48, 255
  br i1 %49, label %50, label %54

50:                                               ; preds = %47
  %51 = load i64, ptr %8, align 8
  %52 = icmp ne i64 %51, 0
  br i1 %52, label %53, label %54

53:                                               ; preds = %50
  br label %58

54:                                               ; preds = %50, %47
  %55 = load i8, ptr %10, align 1
  %56 = trunc i8 %55 to i1
  %57 = select i1 %56, i32 -2147483648, i32 2147483647
  br label %58

58:                                               ; preds = %54, %53
  %59 = phi i32 [ 2147483647, %53 ], [ %57, %54 ]
  %60 = sext i32 %59 to i64
  store i64 %60, ptr %3, align 8
  br label %87

61:                                               ; preds = %35
  %62 = load i64, ptr %8, align 8
  %63 = or i64 %62, 8388608
  %64 = shl i64 %63, 8
  store i64 %64, ptr %8, align 8
  %65 = load i64, ptr %8, align 8
  %66 = load i64, ptr %9, align 8
  %67 = lshr i64 %65, %66
  store i64 %67, ptr %11, align 8
  %68 = load i8, ptr %5, align 1
  %69 = trunc i8 %68 to i1
  br i1 %69, label %70, label %77

70:                                               ; preds = %61
  %71 = load i64, ptr %11, align 8
  %72 = load i64, ptr %9, align 8
  %73 = shl i64 %71, %72
  %74 = load i64, ptr %8, align 8
  %75 = icmp ne i64 %73, %74
  br i1 %75, label %76, label %77

76:                                               ; preds = %70
  call void @_ZN2cvL10raiseFlagsEh(i8 noundef zeroext 1)
  br label %77

77:                                               ; preds = %76, %70, %61
  %78 = load i8, ptr %10, align 1
  %79 = trunc i8 %78 to i1
  br i1 %79, label %80, label %83

80:                                               ; preds = %77
  %81 = load i64, ptr %11, align 8
  %82 = sub nsw i64 0, %81
  br label %85

83:                                               ; preds = %77
  %84 = load i64, ptr %11, align 8
  br label %85

85:                                               ; preds = %83, %80
  %86 = phi i64 [ %82, %80 ], [ %84, %83 ]
  store i64 %86, ptr %3, align 8
  br label %87

87:                                               ; preds = %85, %58, %46, %34
  %88 = load i64, ptr %3, align 8
  ret i64 %88
}

; Function Attrs: mustprogress nounwind uwtable
define linkonce_odr hidden void @_ZN2cv9softfloatC2ERKS0_(ptr noundef nonnull align 4 dereferenceable(4) %0, ptr noundef nonnull align 4 dereferenceable(4) %1) unnamed_addr #1 comdat align 2 {
  %3 = alloca ptr, align 8
  %4 = alloca ptr, align 8
  store ptr %0, ptr %3, align 8
  store ptr %1, ptr %4, align 8
  %5 = load ptr, ptr %3, align 8
  %6 = load ptr, ptr %4, align 8
  %7 = getelementptr inbounds %"struct.cv::softfloat", ptr %6, i32 0, i32 0
  %8 = load i32, ptr %7, align 4
  %9 = getelementptr inbounds %"struct.cv::softfloat", ptr %5, i32 0, i32 0
  store i32 %8, ptr %9, align 4
  ret void
}

; Function Attrs: mustprogress uwtable
define noundef i32 @_Z7cvTruncRKN2cv9softfloatE(ptr noundef nonnull align 4 dereferenceable(4) %0) #0 {
  %2 = alloca ptr, align 8
  %3 = alloca %"struct.cv::softfloat", align 4
  store ptr %0, ptr %2, align 8
  %4 = load ptr, ptr %2, align 8
  call void @_ZN2cv9softfloatC2ERKS0_(ptr noundef nonnull align 4 dereferenceable(4) %3, ptr noundef nonnull align 4 dereferenceable(4) %4)
  %5 = call noundef i64 @_ZN2cvL19f32_to_i32_r_minMagENS_9softfloatEb(ptr noundef %3, i1 noundef zeroext false)
  %6 = trunc i64 %5 to i32
  ret i32 %6
}