; Function Attrs: mustprogress nofree norecurse nosync nounwind willreturn memory(argmem: read) uwtable
define noundef i32 @_Z7cvTruncRKN2cv9softfloatE(ptr nocapture noundef nonnull readonly align 4 dereferenceable(4) %0) local_unnamed_addr #4 {
  %2 = load i32, ptr %0, align 4
  %3 = zext i32 %2 to i64
  %4 = lshr i64 %3, 23
  %5 = and i64 %4, 255
  %6 = and i64 %3, 8388607
  %7 = sub nsw i64 158, %5
  %8 = icmp ult i64 %5, 127
  br i1 %8, label %_ZN2cvL19f32_to_i32_r_minMagENS_9softfloatEb.exit, label %9

9:                                                ; preds = %1
  %.not.i = icmp sgt i32 %2, -1
  %10 = icmp ugt i64 %5, 157
  br i1 %10, label %11, label %18

11:                                               ; preds = %9
  %12 = icmp eq i32 %2, -822083584
  br i1 %12, label %_ZN2cvL19f32_to_i32_r_minMagENS_9softfloatEb.exit, label %13

13:                                               ; preds = %11
  %14 = icmp eq i64 %5, 255
  %15 = icmp ne i64 %6, 0
  %or.cond.i = and i1 %15, %14
  %16 = or i1 %.not.i, %or.cond.i
  %17 = select i1 %16, i64 2147483647, i64 -2147483648
  br label %_ZN2cvL19f32_to_i32_r_minMagENS_9softfloatEb.exit

18:                                               ; preds = %9
  %19 = shl nuw nsw i64 %6, 8
  %20 = or disjoint i64 %19, 2147483648
  %21 = lshr i64 %20, %7
  %22 = sub nsw i64 0, %21
  %23 = select i1 %.not.i, i64 %21, i64 %22
  br label %_ZN2cvL19f32_to_i32_r_minMagENS_9softfloatEb.exit

_ZN2cvL19f32_to_i32_r_minMagENS_9softfloatEb.exit: ; preds = %1, %11, %13, %18
  %.0.i = phi i64 [ %17, %13 ], [ %23, %18 ], [ 0, %1 ], [ -2147483648, %11 ]
  %24 = trunc nsw i64 %.0.i to i32
  ret i32 %24
}